; Function Attrs: mustprogress uwtable
define hidden void @_ZN3nla7emonics14set_propagatedERKNS_5monicE(ptr noundef nonnull align 8 dereferenceable(216) %this, ptr nocapture noundef nonnull readonly align 8 dereferenceable(34) %m) local_unnamed_addr #4 align 2 personality ptr @__gxx_personality_v0 {
entry:
  %0 = load i32, ptr %m, align 8
  %m_monics.i = getelementptr inbounds i8, ptr %this, i64 128
  %m_var2index.i = getelementptr inbounds i8, ptr %this, i64 136
  %1 = load ptr, ptr %m_var2index.i, align 8
  %idxprom.i.i = zext i32 %0 to i64
  %arrayidx.i.i = getelementptr inbounds i32, ptr %1, i64 %idxprom.i.i
  %2 = load i32, ptr %arrayidx.i.i, align 4
  %3 = load ptr, ptr %m_monics.i, align 8
  %idxprom.i1.i = zext i32 %2 to i64
  %m_propagated.i = getelementptr inbounds %"class.nla::monic", ptr %3, i64 %idxprom.i1.i, i32 5
  store i8 1, ptr %m_propagated.i, align 8
  %4 = load i32, ptr %m, align 8
  %m_region.i = getelementptr inbounds i8, ptr %this, i64 16
  %call.i.i3 = tail call noundef ptr @_ZN6region8allocateEm(ptr noundef nonnull align 8 dereferenceable(40) %m_region.i, i64 noundef 24)
  store ptr getelementptr inbounds ({ [5 x ptr] }, ptr @_ZTVZN3nla7emonics14set_propagatedERKNS_5monicEE16set_unpropagated, i64 0, i32 0, i64 2), ptr %call.i.i3, align 8
  %em.i.i = getelementptr inbounds i8, ptr %call.i.i3, i64 8
  store ptr %this, ptr %em.i.i, align 8
  %ref.tmp.sroa.3.8.em.i.i.sroa_idx = getelementptr inbounds i8, ptr %call.i.i3, i64 16
  store i32 %4, ptr %ref.tmp.sroa.3.8.em.i.i.sroa_idx, align 8
  %5 = load ptr, ptr %this, align 8
  %cmp.i.i = icmp eq ptr %5, null
  br i1 %cmp.i.i, label %if.then.i.i, label %lor.lhs.false.i.i

lor.lhs.false.i.i:                                ; preds = %entry
  %arrayidx.i.i2 = getelementptr inbounds i8, ptr %5, i64 -4
  %6 = load i32, ptr %arrayidx.i.i2, align 4
  %arrayidx4.i.i = getelementptr inbounds i8, ptr %5, i64 -8
  %7 = load i32, ptr %arrayidx4.i.i, align 4
  %cmp5.i.i = icmp eq i32 %6, %7
  br i1 %cmp5.i.i, label %if.then.i.i, label %invoke.cont

if.then.i.i:                                      ; preds = %lor.lhs.false.i.i, %entry
  tail call void @_ZN6vectorIP5trailLb0EjE13expand_vectorEv(ptr noundef nonnull align 8 dereferenceable(8) %this)
  %.pre.i.i = load ptr, ptr %this, align 8
  %arrayidx8.phi.trans.insert.i.i = getelementptr inbounds i8, ptr %.pre.i.i, i64 -4
  %.pre1.i.i = load i32, ptr %arrayidx8.phi.trans.insert.i.i, align 4
  br label %invoke.cont

invoke.cont:                                      ; preds = %if.then.i.i, %lor.lhs.false.i.i
  %8 = phi i32 [ %.pre1.i.i, %if.then.i.i ], [ %6, %lor.lhs.false.i.i ]
  %9 = phi ptr [ %.pre.i.i, %if.then.i.i ], [ %5, %lor.lhs.false.i.i ]
  %idx.ext.i.i = zext i32 %8 to i64
  %add.ptr.i.i = getelementptr inbounds ptr, ptr %9, i64 %idx.ext.i.i
  store ptr %call.i.i3, ptr %add.ptr.i.i, align 8
  %10 = load ptr, ptr %this, align 8
  %arrayidx10.i.i = getelementptr inbounds i8, ptr %10, i64 -4
  %11 = load i32, ptr %arrayidx10.i.i, align 4
  %inc.i.i = add i32 %11, 1
  store i32 %inc.i.i, ptr %arrayidx10.i.i, align 4
  ret void
}